target datalayout = "e-m:e-p270:32:32-p271:32:32-p272:64:64-i64:64-i128:128-f80:128-n8:16:32:64-S128"
target triple = "x86_64-pc-linux-gnu"

%struct.hb_ot_map_feature_t = type { i32, i32 }
%struct.hb_ot_shape_planner_t = type { ptr, %struct.hb_segment_properties_t, %struct.hb_ot_map_builder_t, i8, ptr }
%struct.hb_segment_properties_t = type { i32, i32, ptr, ptr, ptr }
%struct.hb_ot_map_builder_t = type { ptr, %struct.hb_segment_properties_t, i8, [2 x i32], [2 x i8], [2 x i32], [2 x i32], [2 x i32], %struct.hb_vector_t.2, [2 x %struct.hb_vector_t.3] }
%struct.hb_vector_t.2 = type { i32, i32, ptr }
%struct.hb_vector_t.3 = type { i32, i32, ptr }

; Function Attrs: mustprogress nounwind uwtable
define internal noundef i32 @_Zor25hb_ot_map_feature_flags_tS_(i32 noundef %0, i32 noundef %1) #1 {
  %3 = alloca i32, align 4
  %4 = alloca i32, align 4
  store i32 %0, ptr %3, align 4
  store i32 %1, ptr %4, align 4
  %5 = load i32, ptr %3, align 4
  %6 = load i32, ptr %4, align 4
  %7 = or i32 %5, %6
  ret i32 %7
}

; Function Attrs: mustprogress uwtable
define linkonce_odr hidden void @_ZN19hb_ot_map_builder_t11add_featureERK19hb_ot_map_feature_t(ptr noundef nonnull align 8 dereferenceable(128) %0, ptr noundef nonnull align 4 dereferenceable(8) %1) #0 comdat align 2 {
  %3 = alloca ptr, align 8
  %4 = alloca ptr, align 8
  store ptr %0, ptr %3, align 8
  store ptr %1, ptr %4, align 8
  %5 = load ptr, ptr %3, align 8
  %6 = load ptr, ptr %4, align 8
  %7 = getelementptr inbounds %struct.hb_ot_map_feature_t, ptr %6, i32 0, i32 0
  %8 = load i32, ptr %7, align 4
  %9 = load ptr, ptr %4, align 8
  %10 = getelementptr inbounds %struct.hb_ot_map_feature_t, ptr %9, i32 0, i32 1
  %11 = load i32, ptr %10, align 4
  call void @_ZN19hb_ot_map_builder_t11add_featureEj25hb_ot_map_feature_flags_tj(ptr noundef nonnull align 8 dereferenceable(128) %5, i32 noundef %8, i32 noundef %11, i32 noundef 1)
  ret void
}

; Function Attrs: mustprogress uwtable
define linkonce_odr hidden void @_ZN19hb_ot_map_builder_t14enable_featureEj25hb_ot_map_feature_flags_tj(ptr noundef nonnull align 8 dereferenceable(128) %0, i32 noundef %1, i32 noundef %2, i32 noundef %3) #0 comdat align 2 {
  %5 = alloca ptr, align 8
  %6 = alloca i32, align 4
  %7 = alloca i32, align 4
  %8 = alloca i32, align 4
  store ptr %0, ptr %5, align 8
  store i32 %1, ptr %6, align 4
  store i32 %2, ptr %7, align 4
  store i32 %3, ptr %8, align 4
  %9 = load ptr, ptr %5, align 8
  %10 = load i32, ptr %6, align 4
  %11 = load i32, ptr %7, align 4
  %12 = call noundef i32 @_Zor25hb_ot_map_feature_flags_tS_(i32 noundef 1, i32 noundef %11)
  %13 = load i32, ptr %8, align 4
  call void @_ZN19hb_ot_map_builder_t11add_featureEj25hb_ot_map_feature_flags_tj(ptr noundef nonnull align 8 dereferenceable(128) %9, i32 noundef %10, i32 noundef %12, i32 noundef %13)
  ret void
}

; Function Attrs: mustprogress uwtable
define linkonce_odr hidden void @_ZN19hb_ot_map_builder_t14add_gsub_pauseEPFbPK18hb_ot_shape_plan_tP9hb_font_tP11hb_buffer_tE(ptr noundef nonnull align 8 dereferenceable(128) %0, ptr noundef %1) #0 comdat align 2 {
  %3 = alloca ptr, align 8
  %4 = alloca ptr, align 8
  store ptr %0, ptr %3, align 8
  store ptr %1, ptr %4, align 8
  %5 = load ptr, ptr %3, align 8
  %6 = load ptr, ptr %4, align 8
  call void @_ZN19hb_ot_map_builder_t9add_pauseEjPFbPK18hb_ot_shape_plan_tP9hb_font_tP11hb_buffer_tE(ptr noundef nonnull align 8 dereferenceable(128) %5, i32 noundef 0, ptr noundef %6)
  ret void
}

; Function Attrs: mustprogress uwtable
define internal void @_ZL22collect_features_indicP21hb_ot_shape_planner_t(ptr noundef %0) #0 {
  %2 = alloca ptr, align 8
  %3 = alloca ptr, align 8
  %4 = alloca i32, align 4
  store ptr %0, ptr %2, align 8
  %5 = load ptr, ptr %2, align 8
  %6 = getelementptr inbounds %struct.hb_ot_shape_planner_t, ptr %5, i32 0, i32 2
  store ptr %6, ptr %3, align 8
  %7 = load ptr, ptr %3, align 8
  call void @_ZN19hb_ot_map_builder_t14add_gsub_pauseEPFbPK18hb_ot_shape_plan_tP9hb_font_tP11hb_buffer_tE(ptr noundef nonnull align 8 dereferenceable(128) %7, ptr noundef @_ZL21setup_syllables_indicPK18hb_ot_shape_plan_tP9hb_font_tP11hb_buffer_t)
  %8 = load ptr, ptr %3, align 8
  call void @_ZN19hb_ot_map_builder_t14enable_featureEj25hb_ot_map_feature_flags_tj(ptr noundef nonnull align 8 dereferenceable(128) %8, i32 noundef 1819239276, i32 noundef 64, i32 noundef 1)
  %9 = load ptr, ptr %3, align 8
  call void @_ZN19hb_ot_map_builder_t14enable_featureEj25hb_ot_map_feature_flags_tj(ptr noundef nonnull align 8 dereferenceable(128) %9, i32 noundef 1667460464, i32 noundef 64, i32 noundef 1)
  store i32 0, ptr %4, align 4
  %10 = load ptr, ptr %3, align 8
  call void @_ZN19hb_ot_map_builder_t14add_gsub_pauseEPFbPK18hb_ot_shape_plan_tP9hb_font_tP11hb_buffer_tE(ptr noundef nonnull align 8 dereferenceable(128) %10, ptr noundef @_ZL24initial_reordering_indicPK18hb_ot_shape_plan_tP9hb_font_tP11hb_buffer_t)
  br label %11

11:                                               ; preds = %20, %1
  %12 = load i32, ptr %4, align 4
  %13 = icmp ult i32 %12, 11
  br i1 %13, label %14, label %23

14:                                               ; preds = %11
  %15 = load ptr, ptr %3, align 8
  %16 = load i32, ptr %4, align 4
  %17 = zext i32 %16 to i64
  %18 = getelementptr inbounds [17 x %struct.hb_ot_map_feature_t], ptr @_ZL14indic_features, i64 0, i64 %17
  call void @_ZN19hb_ot_map_builder_t11add_featureERK19hb_ot_map_feature_t(ptr noundef nonnull align 8 dereferenceable(128) %15, ptr noundef nonnull align 4 dereferenceable(8) %18)
  %19 = load ptr, ptr %3, align 8
  call void @_ZN19hb_ot_map_builder_t14add_gsub_pauseEPFbPK18hb_ot_shape_plan_tP9hb_font_tP11hb_buffer_tE(ptr noundef nonnull align 8 dereferenceable(128) %19, ptr noundef null)
  br label %20

20:                                               ; preds = %14
  %21 = load i32, ptr %4, align 4
  %22 = add i32 %21, 1
  store i32 %22, ptr %4, align 4
  br label %11, !llvm.loop !6

23:                                               ; preds = %11
  %24 = load ptr, ptr %3, align 8
  call void @_ZN19hb_ot_map_builder_t14add_gsub_pauseEPFbPK18hb_ot_shape_plan_tP9hb_font_tP11hb_buffer_tE(ptr noundef nonnull align 8 dereferenceable(128) %24, ptr noundef @_ZL22final_reordering_indicPK18hb_ot_shape_plan_tP9hb_font_tP11hb_buffer_t)
  br label %25

25:                                               ; preds = %33, %23
  %26 = load i32, ptr %4, align 4
  %27 = icmp ult i32 %26, 17
  br i1 %27, label %28, label %36

28:                                               ; preds = %25
  %29 = load ptr, ptr %3, align 8
  %30 = load i32, ptr %4, align 4
  %31 = zext i32 %30 to i64
  %32 = getelementptr inbounds [17 x %struct.hb_ot_map_feature_t], ptr @_ZL14indic_features, i64 0, i64 %31
  call void @_ZN19hb_ot_map_builder_t11add_featureERK19hb_ot_map_feature_t(ptr noundef nonnull align 8 dereferenceable(128) %29, ptr noundef nonnull align 4 dereferenceable(8) %32)
  br label %33

33:                                               ; preds = %28
  %34 = load i32, ptr %4, align 4
  %35 = add i32 %34, 1
  store i32 %35, ptr %4, align 4
  br label %25, !llvm.loop !8

36:                                               ; preds = %25
  ret void
}