; Function Attrs: mustprogress uwtable
define internal void @_ZL22collect_features_indicP21hb_ot_shape_planner_t(ptr noundef %0) #0 {
  %2 = getelementptr inbounds i8, ptr %0, i64 40
  tail call void @_ZN19hb_ot_map_builder_t9add_pauseEjPFbPK18hb_ot_shape_plan_tP9hb_font_tP11hb_buffer_tE(ptr noundef nonnull align 8 dereferenceable(128) %2, i32 noundef 0, ptr noundef nonnull @_ZL21setup_syllables_indicPK18hb_ot_shape_plan_tP9hb_font_tP11hb_buffer_t)
  tail call void @_ZN19hb_ot_map_builder_t11add_featureEj25hb_ot_map_feature_flags_tj(ptr noundef nonnull align 8 dereferenceable(128) %2, i32 noundef 1819239276, i32 noundef 65, i32 noundef 1)
  tail call void @_ZN19hb_ot_map_builder_t11add_featureEj25hb_ot_map_feature_flags_tj(ptr noundef nonnull align 8 dereferenceable(128) %2, i32 noundef 1667460464, i32 noundef 65, i32 noundef 1)
  tail call void @_ZN19hb_ot_map_builder_t9add_pauseEjPFbPK18hb_ot_shape_plan_tP9hb_font_tP11hb_buffer_tE(ptr noundef nonnull align 8 dereferenceable(128) %2, i32 noundef 0, ptr noundef nonnull @_ZL24initial_reordering_indicPK18hb_ot_shape_plan_tP9hb_font_tP11hb_buffer_t)
  br label %3

3:                                                ; preds = %1, %3
  %indvars.iv = phi i64 [ 0, %1 ], [ %indvars.iv.next, %3 ]
  %4 = getelementptr inbounds [17 x %struct.hb_ot_map_feature_t], ptr @_ZL14indic_features, i64 0, i64 %indvars.iv
  %5 = load i32, ptr %4, align 8
  %6 = getelementptr inbounds i8, ptr %4, i64 4
  %7 = load i32, ptr %6, align 4
  tail call void @_ZN19hb_ot_map_builder_t11add_featureEj25hb_ot_map_feature_flags_tj(ptr noundef nonnull align 8 dereferenceable(128) %2, i32 noundef %5, i32 noundef %7, i32 noundef 1)
  tail call void @_ZN19hb_ot_map_builder_t9add_pauseEjPFbPK18hb_ot_shape_plan_tP9hb_font_tP11hb_buffer_tE(ptr noundef nonnull align 8 dereferenceable(128) %2, i32 noundef 0, ptr noundef null)
  %indvars.iv.next = add nuw nsw i64 %indvars.iv, 1
  %exitcond.not = icmp eq i64 %indvars.iv.next, 11
  br i1 %exitcond.not, label %.lr.ph.preheader, label %3, !llvm.loop !6

.lr.ph.preheader:                                 ; preds = %3
  tail call void @_ZN19hb_ot_map_builder_t9add_pauseEjPFbPK18hb_ot_shape_plan_tP9hb_font_tP11hb_buffer_tE(ptr noundef nonnull align 8 dereferenceable(128) %2, i32 noundef 0, ptr noundef nonnull @_ZL22final_reordering_indicPK18hb_ot_shape_plan_tP9hb_font_tP11hb_buffer_t)
  br label %.lr.ph

.lr.ph:                                           ; preds = %.lr.ph.preheader, %.lr.ph
  %indvars.iv17 = phi i64 [ 11, %.lr.ph.preheader ], [ %indvars.iv.next18, %.lr.ph ]
  %8 = getelementptr inbounds [17 x %struct.hb_ot_map_feature_t], ptr @_ZL14indic_features, i64 0, i64 %indvars.iv17
  %9 = load i32, ptr %8, align 8
  %10 = getelementptr inbounds i8, ptr %8, i64 4
  %11 = load i32, ptr %10, align 4
  tail call void @_ZN19hb_ot_map_builder_t11add_featureEj25hb_ot_map_feature_flags_tj(ptr noundef nonnull align 8 dereferenceable(128) %2, i32 noundef %9, i32 noundef %11, i32 noundef 1)
  %indvars.iv.next18 = add nuw nsw i64 %indvars.iv17, 1
  %exitcond20.not = icmp eq i64 %indvars.iv.next18, 17
  br i1 %exitcond20.not, label %._crit_edge, label %.lr.ph, !llvm.loop !8

._crit_edge:                                      ; preds = %.lr.ph
  ret void
}